; Function Attrs: null_pointer_is_valid sspstrong uwtable
define internal fastcc noalias noundef ptr @lbttcp_transport_create(ptr noundef readonly captures(none) %0, i16 noundef zeroext %1, i32 noundef %2) unnamed_addr #0 {
  %4 = tail call ptr @wmem_file_scope()
  %5 = tail call noalias dereferenceable_or_null(56) ptr @wmem_alloc(ptr noundef %4, i64 noundef 56) #7
  %6 = tail call ptr @wmem_file_scope()
  %7 = load i32, ptr %0, align 8
  %8 = getelementptr inbounds nuw i8, ptr %0, i64 4
  %9 = load i32, ptr %8, align 4
  %10 = getelementptr inbounds nuw i8, ptr %0, i64 8
  %11 = load ptr, ptr %10, align 8
  tail call void @llvm.memset.p0.i64(ptr noundef align 8 dereferenceable(24) %5, i8 0, i64 24, i1 false)
  store i32 %7, ptr %5, align 8
  %12 = icmp eq i32 %9, 0
  br i1 %12, label %copy_address_wmem.exit, label %13

13:                                               ; preds = %3
  %14 = sext i32 %9 to i64
  %15 = tail call ptr @wmem_memdup(ptr noundef %6, ptr noundef %11, i64 noundef %14) #8
  %16 = getelementptr inbounds nuw i8, ptr %5, i64 16
  store ptr %15, ptr %16, align 8
  %17 = getelementptr inbounds nuw i8, ptr %5, i64 8
  store ptr %15, ptr %17, align 8
  %18 = getelementptr inbounds nuw i8, ptr %5, i64 4
  store i32 %9, ptr %18, align 4
  br label %copy_address_wmem.exit

copy_address_wmem.exit:                           ; preds = %3, %13
  %19 = getelementptr inbounds nuw i8, ptr %5, i64 24
  store i16 %1, ptr %19, align 8
  %20 = getelementptr inbounds nuw i8, ptr %5, i64 28
  store i32 %2, ptr %20, align 4
  %21 = tail call i64 @lbm_channel_assign(i8 noundef zeroext 0)
  %22 = getelementptr inbounds nuw i8, ptr %5, i64 32
  store i64 %21, ptr %22, align 8
  %23 = getelementptr inbounds nuw i8, ptr %5, i64 40
  store i32 1, ptr %23, align 8
  %24 = tail call ptr @wmem_file_scope()
  %25 = tail call noalias ptr @wmem_list_new(ptr noundef %24)
  %26 = getelementptr inbounds nuw i8, ptr %5, i64 48
  store ptr %25, ptr %26, align 8
  ret ptr %5
}